Certificate:
    Data:
        Version: 1 (0x0)
        Serial Number: 4 (0x4)
        Signature Algorithm: sha256WithRSAEncryption
        Issuer: CN=SGXCACertificate
        Validity
            Not Before: Apr  2 06:49:29 2021 GMT
            Not After : Mar 31 06:49:29 2031 GMT
        Subject: CN=cb13bc424da66a0a3eece511c58696623042c3ba4962431b0786b00c47682bf5
        Subject Public Key Info:
            Public Key Algorithm: rsaEncryption
                RSA Public-Key: (2048 bit)
                Modulus:
                    00:a8:ae:84:ac:61:d7:71:d5:52:29:82:ca:2e:55:
                    b2:82:08:b0:4e:ca:ad:e0:f4:2d:11:62:17:03:aa:
                    49:5a:bb:73:34:81:c5:a6:67:bb:f6:b1:70:29:e1:
                    fa:34:70:10:82:53:27:58:99:f8:02:af:d3:03:c2:
                    ee:66:b1:67:c7:9c:d4:ab:d8:10:96:a9:44:7a:56:
                    46:38:fd:c9:f8:86:1f:87:d9:df:fe:4a:bb:30:bd:
                    06:18:f1:45:ac:44:2e:17:7d:68:ff:23:52:ae:a3:
                    8d:29:aa:f0:d4:2d:03:82:46:c9:b3:14:fc:b6:16:
                    d3:11:60:7b:f3:10:d2:07:a7:85:fc:27:e4:2f:ac:
                    ae:e2:92:0c:37:0a:18:9f:89:a2:73:cb:33:50:5c:
                    ef:37:6e:9c:3e:d9:20:a3:19:e8:84:8d:bb:15:03:
                    94:61:d1:41:40:da:28:6d:f0:96:bb:88:09:9d:b3:
                    af:0f:6b:af:21:f6:10:2b:1d:90:1d:ab:b6:37:dc:
                    25:a3:ee:7a:1e:40:d2:35:40:54:16:cc:d2:17:32:
                    68:89:d0:6a:d1:97:c8:87:75:d8:d1:39:26:66:a2:
                    ea:ae:f6:78:37:47:3a:94:8c:83:6f:b0:bd:b2:7a:
                    9f:cd:a6:81:a9:2f:bc:cf:2d:17:84:b2:1a:07:df:
                    a1:6f
                Exponent: 65537 (0x10001)
    Signature Algorithm: sha256WithRSAEncryption
         80:d8:30:a5:d9:6e:9e:6f:6e:a2:71:18:c0:72:7e:2e:09:61:
         f1:8b:b3:d5:88:80:c9:fa:85:c6:1f:ac:2b:61:9d:49:a6:07:
         eb:61:e3:0c:69:09:ac:ef:8a:7e:1d:ed:f1:ce:80:c9:f4:b7:
         c9:c6:12:39:bc:df:07:40:88:16:5b:6b:6c:1d:77:2d:ea:41:
         96:d5:de:0f:80:a7:43:d7:9e:d0:eb:43:c3:cc:cc:4c:c8:ac:
         65:99:ac:11:34:09:c7:18:08:a3:86:b5:4e:37:26:8c:15:f3:
         02:0b:88:f3:ef:ff:2a:c8:47:6f:de:b5:4b:5d:4b:da:ce:ad:
         91:63:fa:09:a7:42:56:59:5a:9d:30:08:cb:2b:6e:12:d4:21:
         58:c0:0c:62:ac:b5:16:1c:8b:0d:66:92:a9:5b:2b:a7:d3:bb:
         7f:6d:dd:51:d8:27:42:fe:b6:b7:25:aa:31:3e:6d:63:5d:95:
         4c:38:2e:dc:1b:84:70:c6:22:c3:d5:fb:cc:0a:a9:30:e5:06:
         0a:6c:1a:45:ab:20:45:11:8e:e4:02:e9:a7:9e:23:87:e4:f6:
         8b:ee:4d:ad:d9:eb:c6:39:78:2d:26:b6:92:57:22:2e:1e:e4:
         c1:83:7e:69:8f:23:17:79:48:67:d3:1d:2e:ef:73:3c:b0:d5:
         ea:27:03:66
-----BEGIN CERTIFICATE-----
MIIC2jCCAcICAQQwDQYJKoZIhvcNAQELBQAwGzEZMBcGA1UEAwwQU0dYQ0FDZXJ0
aWZpY2F0ZTAeFw0yMTA0MDIwNjQ5MjlaFw0zMTAzMzEwNjQ5MjlaMEsxSTBHBgNV
BAMMQGNiMTNiYzQyNGRhNjZhMGEzZWVjZTUxMWM1ODY5NjYyMzA0MmMzYmE0OTYy
NDMxYjA3ODZiMDBjNDc2ODJiZjUwggEiMA0GCSqGSIb3DQEBAQUAA4IBDwAwggEK
AoIBAQCoroSsYddx1VIpgsouVbKCCLBOyq3g9C0RYhcDqklau3M0gcWmZ7v2sXAp
4fo0cBCCUydYmfgCr9MDwu5msWfHnNSr2BCWqUR6VkY4/cn4hh+H2d/+SrswvQYY
8UWsRC4XfWj/I1Kuo40pqvDULQOCRsmzFPy2FtMRYHvzENIHp4X8J+QvrK7ikgw3
ChifiaJzyzNQXO83bpw+2SCjGeiEjbsVA5Rh0UFA2iht8Ja7iAmds68Pa68h9hAr
HZAdq7Y33CWj7noeQNI1QFQWzNIXMmiJ0GrRl8iHddjROSZmouqu9ng3RzqUjINv
sL2yep/NpoGpL7zPLReEshoH36FvAgMBAAEwDQYJKoZIhvcNAQELBQADggEBAIDY
MKXZbp5vbqJxGMByfi4JYfGLs9WIgMn6hcYfrCthnUmmB+th4wxpCazvin4d7fHO
gMn0t8nGEjm83wdAiBZba2wddy3qQZbV3g+Ap0PXntDrQ8PMzEzIrGWZrBE0CccY
CKOGtU43JowV8wILiPPv/yrIR2/etUtdS9rOrZFj+gmnQlZZWp0wCMsrbhLUIVjA
DGKstRYciw1mkqlbK6fTu39t3VHYJ0L+trclqjE+bWNdlUw4LtwbhHDGIsPV+8wK
qTDlBgpsGkWrIEURjuQC6aeeI4fk9ovuTa3Z68Y5eC0mtpJXIi4e5MGDfmmPIxd5
SGfTHS7vczyw1eonA2Y=
-----END CERTIFICATE-----
